; Function Attrs: mustprogress uwtable
define void @_ZN3nix14UDSRemoteStore15addIndirectRootERKNSt7__cxx1112basic_stringIcSt11char_traitsIcESaIcEEE(ptr noundef nonnull align 8 dereferenceable(48) %0, ptr nocapture noundef nonnull readonly align 8 dereferenceable(32) %1) unnamed_addr #5 align 2 personality ptr @__gxx_personality_v0 {
  %3 = alloca [8 x i8], align 1
  %4 = alloca %"struct.nix::RemoteStore::ConnectionHandle", align 8
  %5 = load ptr, ptr %0, align 8
  %6 = getelementptr i8, ptr %5, i64 -120
  %7 = load i64, ptr %6, align 8
  %8 = getelementptr inbounds i8, ptr %0, i64 %7
  call void @_ZN3nix11RemoteStore13getConnectionEv(ptr dead_on_unwind nonnull writable sret(%"struct.nix::RemoteStore::ConnectionHandle") align 8 %4, ptr noundef nonnull align 8 dereferenceable(25) %8)
  %9 = getelementptr inbounds i8, ptr %4, i64 8
  %10 = load ptr, ptr %9, align 8
  %11 = getelementptr inbounds i8, ptr %10, i64 8
  %12 = load ptr, ptr %11, align 8
  %13 = getelementptr i8, ptr %12, i64 -48
  %14 = load i64, ptr %13, align 8
  %15 = getelementptr inbounds i8, ptr %11, i64 %14
  call void @llvm.lifetime.start.p0(i64 8, ptr nonnull %3)
  store i8 12, ptr %3, align 1
  %16 = getelementptr inbounds i8, ptr %3, i64 1
  call void @llvm.memset.p0.i64(ptr noundef nonnull align 1 dereferenceable(7) %16, i8 0, i64 7, i1 false)
  %17 = load ptr, ptr %15, align 8
  %18 = getelementptr inbounds i8, ptr %17, i64 16
  %19 = load ptr, ptr %18, align 8
  invoke void %19(ptr noundef nonnull align 8 dereferenceable(8) %15, i64 8, ptr nonnull %3)
          to label %20 unwind label %30

20:                                               ; preds = %2
  call void @llvm.lifetime.end.p0(i64 8, ptr nonnull %3)
  %21 = load ptr, ptr %1, align 8
  %22 = getelementptr inbounds i8, ptr %1, i64 8
  %23 = load i64, ptr %22, align 8
  %24 = invoke noundef nonnull align 8 dereferenceable(8) ptr @_ZN3nixlsERNS_4SinkESt17basic_string_viewIcSt11char_traitsIcEE(ptr noundef nonnull align 8 dereferenceable(8) %15, i64 %23, ptr %21)
          to label %25 unwind label %30

25:                                               ; preds = %20
  invoke void @_ZN3nix11RemoteStore16ConnectionHandle13processStderrEPNS_4SinkEPNS_6SourceEb(ptr noundef nonnull align 8 dereferenceable(33) %4, ptr noundef null, ptr noundef null, i1 noundef zeroext true)
          to label %26 unwind label %30

26:                                               ; preds = %25
  %27 = load ptr, ptr %9, align 8
  %28 = getelementptr inbounds i8, ptr %27, i64 64
  %29 = invoke noundef i32 @_ZN3nix7readNumIjEET_RNS_6SourceE(ptr noundef nonnull align 8 dereferenceable(8) %28)
          to label %_ZN3nix7readIntERNS_6SourceE.exit unwind label %30

_ZN3nix7readIntERNS_6SourceE.exit:                ; preds = %26
  call void @_ZN3nix11RemoteStore16ConnectionHandleD1Ev(ptr noundef nonnull align 8 dereferenceable(33) %4) #23
  ret void

30:                                               ; preds = %26, %2, %25, %20
  %31 = landingpad { ptr, i32 }
          cleanup
  call void @_ZN3nix11RemoteStore16ConnectionHandleD1Ev(ptr noundef nonnull align 8 dereferenceable(33) %4) #23
  resume { ptr, i32 } %31
}